; Function Attrs: mustprogress uwtable
define void @_Z20ulocimp_getParent_77PKcR10UErrorCode(ptr dead_on_unwind noalias writable sret(%"class.icu_77::CharString") align 8 %0, ptr noundef %1, ptr noundef nonnull readonly align 4 captures(none) dereferenceable(4) %2) local_unnamed_addr #1 personality ptr @__gxx_personality_v0 {
  %4 = alloca %"class.icu_77::CharStringByteSink", align 8
  tail call void @llvm.experimental.noalias.scope.decl(metadata !99)
  %5 = load i32, ptr %2, align 4, !tbaa !13, !noalias !99
  %6 = icmp slt i32 %5, 1
  tail call void @_ZN6icu_7715MaybeStackArrayIcLi40EEC1Ev(ptr noundef nonnull align 8 dereferenceable(60) %0)
  %7 = getelementptr inbounds nuw i8, ptr %0, i64 56
  store i32 0, ptr %7, align 8, !tbaa !18, !alias.scope !99
  %8 = load ptr, ptr %0, align 8, !tbaa !3, !alias.scope !99
  store i8 0, ptr %8, align 1, !tbaa !20
  br i1 %6, label %9, label %"_ZN6icu_7712ByteSinkUtil23viaByteSinkToCharStringIZ20ulocimp_getParent_77PKcR10UErrorCodeE3$_0vEENS_10CharStringEOT_S5_.exit"

9:                                                ; preds = %3
  call void @llvm.lifetime.start.p0(i64 16, ptr nonnull %4) #20, !noalias !99
  invoke void @_ZN6icu_7718CharStringByteSinkC1EPNS_10CharStringE(ptr noundef nonnull align 8 dereferenceable(16) %4, ptr noundef nonnull align 8 %0)
          to label %10 unwind label %29

10:                                               ; preds = %9
  %.val7.i = load i32, ptr %2, align 4, !tbaa !13, !noalias !99
  %11 = icmp slt i32 %.val7.i, 1
  br i1 %11, label %12, label %"_ZZ20ulocimp_getParent_77PKcR10UErrorCodeENK3$_0clERN6icu_778ByteSinkES2_.exit.i"

12:                                               ; preds = %10
  %13 = icmp eq ptr %1, null
  br i1 %13, label %14, label %.noexc.i

14:                                               ; preds = %12
  %15 = invoke ptr @locale_get_default_77()
          to label %.noexc.i unwind label %31

.noexc.i:                                         ; preds = %14, %12
  %.012.i.i.i = phi ptr [ %1, %12 ], [ %15, %14 ]
  %16 = call noundef ptr @strrchr(ptr noundef nonnull dereferenceable(1) %.012.i.i.i, i32 noundef 95) #23
  %.not16.i.i.i = icmp eq ptr %16, null
  %17 = ptrtoint ptr %16 to i64
  %18 = ptrtoint ptr %.012.i.i.i to i64
  %19 = sub i64 %17, %18
  %20 = trunc i64 %19 to i32
  %.0.i.i.i = select i1 %.not16.i.i.i, i32 0, i32 %20
  %21 = icmp sgt i32 %.0.i.i.i, 0
  br i1 %21, label %22, label %"_ZZ20ulocimp_getParent_77PKcR10UErrorCodeENK3$_0clERN6icu_778ByteSinkES2_.exit.i"

22:                                               ; preds = %.noexc.i
  %23 = invoke i32 @uprv_strnicmp_77(ptr noundef nonnull %.012.i.i.i, ptr noundef nonnull @.str.4, i32 noundef 4)
          to label %.noexc8.i unwind label %31

.noexc8.i:                                        ; preds = %22
  %24 = icmp eq i32 %23, 0
  %25 = add nsw i32 %.0.i.i.i, -3
  %.113.idx.i.i.i = select i1 %24, i64 3, i64 0
  %.113.i.i.i = getelementptr inbounds nuw i8, ptr %.012.i.i.i, i64 %.113.idx.i.i.i
  %.1.i.i.i = select i1 %24, i32 %25, i32 %.0.i.i.i
  %26 = load ptr, ptr %4, align 8, !tbaa !32, !noalias !99
  %27 = getelementptr inbounds nuw i8, ptr %26, i64 16
  %28 = load ptr, ptr %27, align 8
  invoke void %28(ptr noundef nonnull align 8 dereferenceable(8) %4, ptr noundef nonnull %.113.i.i.i, i32 noundef %.1.i.i.i)
          to label %"_ZZ20ulocimp_getParent_77PKcR10UErrorCodeENK3$_0clERN6icu_778ByteSinkES2_.exit.i" unwind label %31

"_ZZ20ulocimp_getParent_77PKcR10UErrorCodeENK3$_0clERN6icu_778ByteSinkES2_.exit.i": ; preds = %.noexc8.i, %.noexc.i, %10
  call void @_ZN6icu_7718CharStringByteSinkD1Ev(ptr noundef nonnull align 8 dereferenceable(16) %4) #20
  call void @llvm.lifetime.end.p0(i64 16, ptr nonnull %4) #20, !noalias !99
  br label %"_ZN6icu_7712ByteSinkUtil23viaByteSinkToCharStringIZ20ulocimp_getParent_77PKcR10UErrorCodeE3$_0vEENS_10CharStringEOT_S5_.exit"

29:                                               ; preds = %9
  %30 = landingpad { ptr, i32 }
          cleanup
  br label %33

31:                                               ; preds = %.noexc8.i, %22, %14
  %32 = landingpad { ptr, i32 }
          cleanup
  call void @_ZN6icu_7718CharStringByteSinkD1Ev(ptr noundef nonnull align 8 dereferenceable(16) %4) #20
  br label %33

33:                                               ; preds = %31, %29
  %.pn.i = phi { ptr, i32 } [ %32, %31 ], [ %30, %29 ]
  call void @llvm.lifetime.end.p0(i64 16, ptr nonnull %4) #20, !noalias !99
  call void @_ZN6icu_7715MaybeStackArrayIcLi40EED1Ev(ptr noundef nonnull align 8 dereferenceable(60) %0) #20
  resume { ptr, i32 } %.pn.i

"_ZN6icu_7712ByteSinkUtil23viaByteSinkToCharStringIZ20ulocimp_getParent_77PKcR10UErrorCodeE3$_0vEENS_10CharStringEOT_S5_.exit": ; preds = %3, %"_ZZ20ulocimp_getParent_77PKcR10UErrorCodeENK3$_0clERN6icu_778ByteSinkES2_.exit.i"
  ret void
}